; Function Attrs: mustprogress uwtable
define dso_local void @_ZN2EA4StdC15CallbackManager10StopThreadEv(ptr noundef nonnull align 8 dereferenceable(296) %this) local_unnamed_addr #1 align 2 personality ptr @__gxx_personality_v0 {
entry:
  %mbThreadStarted = getelementptr inbounds i8, ptr %this, i64 240
  %0 = cmpxchg ptr %mbThreadStarted, i32 1, i32 0 seq_cst seq_cst, align 4
  %1 = extractvalue { i32, i1 } %0, 1
  br i1 %1, label %if.then, label %if.end

if.then:                                          ; preds = %entry
  %mThread = getelementptr inbounds i8, ptr %this, i64 232
  tail call void @_ZN2EA6Thread6Thread4WakeEv(ptr noundef nonnull align 8 dereferenceable(8) %mThread)
  %call3 = tail call noundef i32 @_ZN2EA6Thread6Thread10WaitForEndERKNS0_10ThreadTimeEPl(ptr noundef nonnull align 8 dereferenceable(8) %mThread, ptr noundef nonnull align 8 dereferenceable(16) @_ZN2EA6ThreadL12kTimeoutNoneE, ptr noundef null)
  br label %if.end

if.end:                                           ; preds = %if.then, %entry
  ret void
}